; Function Attrs: mustprogress nofree norecurse nosync nounwind willreturn memory(argmem: write) uwtable
define void @_ZN7rocksdb15DirFsyncOptionsC2ENS0_11FsyncReasonE(ptr noundef nonnull align 8 dereferenceable(40) %0, i8 noundef zeroext %1) unnamed_addr #4 align 2 personality ptr @__gxx_personality_v0 {
  %3 = getelementptr inbounds nuw i8, ptr %0, i64 8
  %4 = getelementptr inbounds nuw i8, ptr %0, i64 24
  store ptr %4, ptr %3, align 8, !tbaa !48
  %5 = getelementptr inbounds nuw i8, ptr %0, i64 16
  store i64 0, ptr %5, align 8, !tbaa !16
  store i8 0, ptr %4, align 8, !tbaa !17
  store i8 %1, ptr %0, align 8, !tbaa !228
  ret void
}